Certificate:
    Data:
        Version: 1 (0x0)
        Serial Number: 1 (0x1)
    Signature Algorithm: md5WithRSAEncryption
        Issuer: C=US, ST=Unset, L=Unset, O=Unset, CN=www.example.com
        Validity
            Not Before: Oct  7 17:04:34 2012 GMT
            Not After : Oct  7 17:04:34 2013 GMT
        Subject: C=US, ST=Unset, O=Unset, CN=www.example.com
        Subject Public Key Info:
            Public Key Algorithm: rsaEncryption
                Public-Key: (1024 bit)
                Modulus:
                    00:bd:b8:cd:75:97:a6:b4:a4:9c:6c:73:44:91:be:
                    0d:67:12:12:62:ed:a6:26:35:f9:1a:f0:bf:ac:f4:
                    40:08:bf:5c:a1:a5:98:65:65:40:6d:11:f3:7d:1f:
                    0d:37:02:18:cf:78:90:21:20:30:2f:69:db:a5:de:
                    5a:92:dd:ac:1b:f3:8b:e8:69:06:91:e0:a3:f4:4c:
                    4d:e8:92:76:2a:97:2e:21:f1:0e:13:25:25:88:f6:
                    07:5a:67:d8:3f:50:bc:90:8a:9e:e9:93:8e:c4:2d:
                    5a:8e:69:bd:89:2b:c9:95:b4:05:f2:4e:13:5b:43:
                    b7:a0:54:f1:84:21:f0:cc:cd
                Exponent: 65537 (0x10001)
    Signature Algorithm: md5WithRSAEncryption
         01:fb:e4:ba:35:25:55:29:16:82:de:21:b4:7a:2b:61:63:ff:
         1a:b5:4a:a0:46:2e:6b:60:d9:94:29:df:49:ca:f2:20:f4:1b:
         8b:81:c9:e6:e2:7a:56:53:fc:52:cc:cf:f5:75:57:a5:1a:34:
         bf:0a:18:90:c6:d1:fe:9c:5f:f0:b0:fd:fc:65:67:f1:55:ab:
         7e:d4:ef:62:0e:cf:e1:aa:49:2f:ed:a2:ec:f7:d9:44:fa:80:
         95:32:f9:dd:fa:b9:e8:7a:78:1d:4d:3b:61:09:17:1f:d2:c5:
         f9:a7:4b:3e:d5:9d:73:f0:60:c3:4c:85:f3:fa:18:02:c5:7f:
         a9:c5
-----BEGIN CERTIFICATE-----
MIICDTCCAXYCAQEwDQYJKoZIhvcNAQEEBQAwVzELMAkGA1UEBhMCVVMxDjAMBgNV
BAgTBVVuc2V0MQ4wDAYDVQQHEwVVbnNldDEOMAwGA1UEChMFVW5zZXQxGDAWBgNV
BAMTD3d3dy5leGFtcGxlLmNvbTAeFw0xMjEwMDcxNzA0MzRaFw0xMzEwMDcxNzA0
MzRaMEcxCzAJBgNVBAYTAlVTMQ4wDAYDVQQIEwVVbnNldDEOMAwGA1UEChMFVW5z
ZXQxGDAWBgNVBAMTD3d3dy5leGFtcGxlLmNvbTCBnzANBgkqhkiG9w0BAQEFAAOB
jQAwgYkCgYEAvbjNdZemtKScbHNEkb4NZxISYu2mJjX5GvC/rPRACL9coaWYZWVA
bRHzfR8NNwIYz3iQISAwL2nbpd5akt2sG/OL6GkGkeCj9ExN6JJ2KpcuIfEOEyUl
iPYHWmfYP1C8kIqe6ZOOxC1ajmm9iSvJlbQF8k4TW0O3oFTxhCHwzM0CAwEAATAN
BgkqhkiG9w0BAQQFAAOBgQAB++S6NSVVKRaC3iG0eithY/8atUqgRi5rYNmUKd9J
yvIg9BuLgcnm4npWU/xSzM/1dVelGjS/ChiQxtH+nF/wsP38ZWfxVat+1O9iDs/h
qkkv7aLs99lE+oCVMvnd+rnoengdTTthCRcf0sX5p0s+1Z1z8GDDTIXz+hgCxX+p
xQ==
-----END CERTIFICATE-----
